; Function Attrs: mustprogress uwtable
define noundef zeroext i1 @_ZNK5arrow6Tensor13is_contiguousEv(ptr nocapture noundef nonnull readonly align 8 dereferenceable(112) %this) local_unnamed_addr #0 align 2 {
entry:
  %type_ = getelementptr inbounds i8, ptr %this, i64 8
  %shape_ = getelementptr inbounds i8, ptr %this, i64 40
  %strides_ = getelementptr inbounds i8, ptr %this, i64 64
  %type.val.i = load ptr, ptr %type_, align 8
  %call.i = tail call fastcc noundef zeroext i1 @_ZN5arrow12_GLOBAL__N_123IsTensorStridesRowMajorERKSt10shared_ptrINS_8DataTypeEERKSt6vectorIlSaIlEESA_(ptr %type.val.i, ptr noundef nonnull align 8 dereferenceable(24) %shape_, ptr noundef nonnull align 8 dereferenceable(24) %strides_)
  br i1 %call.i, label %_ZN5arrow8internal25IsTensorStridesContiguousERKSt10shared_ptrINS_8DataTypeEERKSt6vectorIlSaIlEESA_.exit, label %lor.rhs.i

lor.rhs.i:                                        ; preds = %entry
  %type.val4.i = load ptr, ptr %type_, align 8
  %call1.i = tail call fastcc noundef zeroext i1 @_ZN5arrow12_GLOBAL__N_126IsTensorStridesColumnMajorERKSt10shared_ptrINS_8DataTypeEERKSt6vectorIlSaIlEESA_(ptr %type.val4.i, ptr noundef nonnull align 8 dereferenceable(24) %shape_, ptr noundef nonnull align 8 dereferenceable(24) %strides_)
  br label %_ZN5arrow8internal25IsTensorStridesContiguousERKSt10shared_ptrINS_8DataTypeEERKSt6vectorIlSaIlEESA_.exit

_ZN5arrow8internal25IsTensorStridesContiguousERKSt10shared_ptrINS_8DataTypeEERKSt6vectorIlSaIlEESA_.exit: ; preds = %entry, %lor.rhs.i
  %0 = phi i1 [ true, %entry ], [ %call1.i, %lor.rhs.i ]
  ret i1 %0
}